target datalayout = "e-m:e-p270:32:32-p271:32:32-p272:64:64-i64:64-i128:128-f80:128-n8:16:32:64-S128"
target triple = "x86_64-pc-linux-gnu"

%struct.pmix_lock_t = type { i32, %struct.pmix_mutex_t, %union.pthread_cond_t, i8 }
%struct.pmix_mutex_t = type { %struct.pmix_object_t, %union.pthread_mutex_t }
%struct.pmix_object_t = type { %union.pthread_mutex_t, ptr, i32, %struct.pmix_tma }
%struct.pmix_tma = type { ptr, ptr, ptr, ptr, ptr, ptr, ptr, ptr }
%union.pthread_mutex_t = type { %struct.__pthread_mutex_s }
%struct.__pthread_mutex_s = type { i32, i32, i32, i32, i32, i16, i16, %struct.__pthread_internal_list }
%struct.__pthread_internal_list = type { ptr, ptr }
%union.pthread_cond_t = type { %struct.__pthread_cond_s }
%struct.__pthread_cond_s = type { %union.__atomic_wide_counter, %union.__atomic_wide_counter, [2 x i32], [2 x i32], i32, i32, [2 x i32] }
%union.__atomic_wide_counter = type { i64 }
%struct.pmix_value = type { i16, %union.anon }
%union.anon = type { %struct.pmix_envar_t }
%struct.pmix_envar_t = type { ptr, ptr, i8 }
%struct.pmix_group_tracker_t = type { %struct.pmix_object_t, %struct.pmix_lock_t, i32, i64, i64, ptr, ptr, i64, ptr, i64, ptr, i64, ptr, ptr, ptr }
%struct.pmix_info = type { [512 x i8], i32, %struct.pmix_value }
%struct.pmix_data_array = type { i16, i64, ptr }

@.str.17 = private unnamed_addr constant [14 x i8] c"pmix.grp.mbrs\00", align 1
@.str.19 = private unnamed_addr constant [12 x i8] c"pmix.grp.id\00", align 1

; Function Attrs: inlinehint nounwind uwtable
define internal void @pmix_mutex_unlock(ptr noundef %0) #2 {
  %2 = alloca ptr, align 8
  store ptr %0, ptr %2, align 8, !tbaa !96
  %3 = load ptr, ptr %2, align 8, !tbaa !96
  %4 = getelementptr inbounds nuw %struct.pmix_mutex_t, ptr %3, i32 0, i32 1
  %5 = call i32 @pthread_mutex_unlock(ptr noundef %4) #11
  ret void
}

; Function Attrs: inlinehint nounwind uwtable
define internal void @pmix_mutex_lock(ptr noundef %0) #2 {
  %2 = alloca ptr, align 8
  store ptr %0, ptr %2, align 8, !tbaa !96
  %3 = load ptr, ptr %2, align 8, !tbaa !96
  %4 = getelementptr inbounds nuw %struct.pmix_mutex_t, ptr %3, i32 0, i32 1
  %5 = call i32 @pthread_mutex_lock(ptr noundef %4) #11
  ret void
}

; Function Attrs: inlinehint nounwind uwtable
define internal void @pmix_atomic_wmb() #2 {
  fence release
  ret void
}

; Function Attrs: nounwind uwtable
define internal void @info_cbfunc(i32 noundef %0, ptr noundef %1, i64 noundef %2, ptr noundef %3, ptr noundef %4, ptr noundef %5) #0 {
  %7 = alloca i32, align 4
  %8 = alloca ptr, align 8
  %9 = alloca i64, align 8
  %10 = alloca ptr, align 8
  %11 = alloca ptr, align 8
  %12 = alloca ptr, align 8
  %13 = alloca ptr, align 8
  %14 = alloca i64, align 8
  %15 = alloca i64, align 8
  %16 = alloca ptr, align 8
  %17 = alloca ptr, align 8
  store i32 %0, ptr %7, align 4, !tbaa !7
  store ptr %1, ptr %8, align 8, !tbaa !41
  store i64 %2, ptr %9, align 8, !tbaa !40
  store ptr %3, ptr %10, align 8, !tbaa !3
  store ptr %4, ptr %11, align 8, !tbaa !3
  store ptr %5, ptr %12, align 8, !tbaa !3
  call void @llvm.lifetime.start.p0(i64 8, ptr %13) #11
  %18 = load ptr, ptr %10, align 8, !tbaa !3
  store ptr %18, ptr %13, align 8, !tbaa !3
  call void @llvm.lifetime.start.p0(i64 8, ptr %14) #11
  call void @llvm.lifetime.start.p0(i64 8, ptr %15) #11
  store i64 0, ptr %15, align 8, !tbaa !40
  call void @llvm.lifetime.start.p0(i64 8, ptr %16) #11
  store ptr null, ptr %16, align 8, !tbaa !39
  call void @llvm.lifetime.start.p0(i64 8, ptr %17) #11
  store ptr null, ptr %17, align 8, !tbaa !38
  %19 = load i32, ptr %7, align 4, !tbaa !7
  %20 = load ptr, ptr %13, align 8, !tbaa !3
  %21 = getelementptr inbounds nuw %struct.pmix_group_tracker_t, ptr %20, i32 0, i32 2
  store i32 %19, ptr %21, align 8, !tbaa !25
  %22 = load ptr, ptr %8, align 8, !tbaa !41
  %23 = icmp ne ptr null, %22
  br i1 %23, label %24, label %91

24:                                               ; preds = %6
  %25 = load i64, ptr %9, align 8, !tbaa !40
  %26 = load ptr, ptr %13, align 8, !tbaa !3
  %27 = getelementptr inbounds nuw %struct.pmix_group_tracker_t, ptr %26, i32 0, i32 11
  store i64 %25, ptr %27, align 8, !tbaa !34
  %28 = load ptr, ptr %13, align 8, !tbaa !3
  %29 = getelementptr inbounds nuw %struct.pmix_group_tracker_t, ptr %28, i32 0, i32 11
  %30 = load i64, ptr %29, align 8, !tbaa !34
  %31 = call ptr @PMIx_Info_create(i64 noundef %30)
  %32 = load ptr, ptr %13, align 8, !tbaa !3
  %33 = getelementptr inbounds nuw %struct.pmix_group_tracker_t, ptr %32, i32 0, i32 10
  store ptr %31, ptr %33, align 8, !tbaa !33
  store i64 0, ptr %14, align 8, !tbaa !40
  br label %34

34:                                               ; preds = %87, %24
  %35 = load i64, ptr %14, align 8, !tbaa !40
  %36 = load i64, ptr %9, align 8, !tbaa !40
  %37 = icmp ult i64 %35, %36
  br i1 %37, label %38, label %90

38:                                               ; preds = %34
  %39 = load ptr, ptr %8, align 8, !tbaa !41
  %40 = load i64, ptr %14, align 8, !tbaa !40
  %41 = getelementptr inbounds nuw %struct.pmix_info, ptr %39, i64 %40
  %42 = getelementptr inbounds nuw %struct.pmix_info, ptr %41, i32 0, i32 0
  %43 = getelementptr inbounds [512 x i8], ptr %42, i64 0, i64 0
  %44 = call zeroext i1 @PMIx_Check_key(ptr noundef %43, ptr noundef @.str.17)
  br i1 %44, label %45, label %62

45:                                               ; preds = %38
  %46 = load ptr, ptr %8, align 8, !tbaa !41
  %47 = load i64, ptr %14, align 8, !tbaa !40
  %48 = getelementptr inbounds nuw %struct.pmix_info, ptr %46, i64 %47
  %49 = getelementptr inbounds nuw %struct.pmix_info, ptr %48, i32 0, i32 2
  %50 = getelementptr inbounds nuw %struct.pmix_value, ptr %49, i32 0, i32 1
  %51 = load ptr, ptr %50, align 8, !tbaa !115
  %52 = getelementptr inbounds nuw %struct.pmix_data_array, ptr %51, i32 0, i32 2
  %53 = load ptr, ptr %52, align 8, !tbaa !117
  store ptr %53, ptr %16, align 8, !tbaa !39
  %54 = load ptr, ptr %8, align 8, !tbaa !41
  %55 = load i64, ptr %14, align 8, !tbaa !40
  %56 = getelementptr inbounds nuw %struct.pmix_info, ptr %54, i64 %55
  %57 = getelementptr inbounds nuw %struct.pmix_info, ptr %56, i32 0, i32 2
  %58 = getelementptr inbounds nuw %struct.pmix_value, ptr %57, i32 0, i32 1
  %59 = load ptr, ptr %58, align 8, !tbaa !115
  %60 = getelementptr inbounds nuw %struct.pmix_data_array, ptr %59, i32 0, i32 1
  %61 = load i64, ptr %60, align 8, !tbaa !119
  store i64 %61, ptr %15, align 8, !tbaa !40
  br label %77

62:                                               ; preds = %38
  %63 = load ptr, ptr %8, align 8, !tbaa !41
  %64 = load i64, ptr %14, align 8, !tbaa !40
  %65 = getelementptr inbounds nuw %struct.pmix_info, ptr %63, i64 %64
  %66 = getelementptr inbounds nuw %struct.pmix_info, ptr %65, i32 0, i32 0
  %67 = getelementptr inbounds [512 x i8], ptr %66, i64 0, i64 0
  %68 = call zeroext i1 @PMIx_Check_key(ptr noundef %67, ptr noundef @.str.19)
  br i1 %68, label %69, label %76

69:                                               ; preds = %62
  %70 = load ptr, ptr %8, align 8, !tbaa !41
  %71 = load i64, ptr %14, align 8, !tbaa !40
  %72 = getelementptr inbounds nuw %struct.pmix_info, ptr %70, i64 %71
  %73 = getelementptr inbounds nuw %struct.pmix_info, ptr %72, i32 0, i32 2
  %74 = getelementptr inbounds nuw %struct.pmix_value, ptr %73, i32 0, i32 1
  %75 = load ptr, ptr %74, align 8, !tbaa !115
  store ptr %75, ptr %17, align 8, !tbaa !38
  br label %76

76:                                               ; preds = %69, %62
  br label %77

77:                                               ; preds = %76, %45
  %78 = load ptr, ptr %13, align 8, !tbaa !3
  %79 = getelementptr inbounds nuw %struct.pmix_group_tracker_t, ptr %78, i32 0, i32 10
  %80 = load ptr, ptr %79, align 8, !tbaa !33
  %81 = load i64, ptr %14, align 8, !tbaa !40
  %82 = getelementptr inbounds nuw %struct.pmix_info, ptr %80, i64 %81
  %83 = load ptr, ptr %8, align 8, !tbaa !41
  %84 = load i64, ptr %14, align 8, !tbaa !40
  %85 = getelementptr inbounds nuw %struct.pmix_info, ptr %83, i64 %84
  %86 = call i32 @PMIx_Info_xfer(ptr noundef %82, ptr noundef %85)
  br label %87

87:                                               ; preds = %77
  %88 = load i64, ptr %14, align 8, !tbaa !40
  %89 = add i64 %88, 1
  store i64 %89, ptr %14, align 8, !tbaa !40
  br label %34, !llvm.loop !169

90:                                               ; preds = %34
  br label %91

91:                                               ; preds = %90, %6
  %92 = load ptr, ptr %16, align 8, !tbaa !39
  %93 = icmp ne ptr null, %92
  br i1 %93, label %94, label %102

94:                                               ; preds = %91
  %95 = load ptr, ptr %17, align 8, !tbaa !38
  %96 = icmp ne ptr null, %95
  br i1 %96, label %97, label %102

97:                                               ; preds = %94
  %98 = load ptr, ptr %17, align 8, !tbaa !38
  %99 = load ptr, ptr %16, align 8, !tbaa !39
  %100 = load i64, ptr %15, align 8, !tbaa !40
  %101 = call i32 @add_group(ptr noundef %98, ptr noundef %99, i64 noundef %100)
  br label %102

102:                                              ; preds = %97, %94, %91
  %103 = load ptr, ptr %11, align 8, !tbaa !3
  %104 = icmp ne ptr null, %103
  br i1 %104, label %105, label %108

105:                                              ; preds = %102
  %106 = load ptr, ptr %11, align 8, !tbaa !3
  %107 = load ptr, ptr %12, align 8, !tbaa !3
  call void %106(ptr noundef %107)
  br label %108

108:                                              ; preds = %105, %102
  call void @pmix_atomic_wmb()
  br label %109

109:                                              ; preds = %108
  %110 = load ptr, ptr %13, align 8, !tbaa !3
  %111 = getelementptr inbounds nuw %struct.pmix_group_tracker_t, ptr %110, i32 0, i32 1
  %112 = getelementptr inbounds nuw %struct.pmix_lock_t, ptr %111, i32 0, i32 1
  call void @pmix_mutex_lock(ptr noundef %112)
  %113 = load ptr, ptr %13, align 8, !tbaa !3
  %114 = getelementptr inbounds nuw %struct.pmix_group_tracker_t, ptr %113, i32 0, i32 1
  %115 = getelementptr inbounds nuw %struct.pmix_lock_t, ptr %114, i32 0, i32 3
  store volatile i8 0, ptr %115, align 8, !tbaa !18
  call void @pmix_atomic_wmb()
  %116 = load ptr, ptr %13, align 8, !tbaa !3
  %117 = getelementptr inbounds nuw %struct.pmix_group_tracker_t, ptr %116, i32 0, i32 1
  %118 = getelementptr inbounds nuw %struct.pmix_lock_t, ptr %117, i32 0, i32 2
  %119 = call i32 @pthread_cond_broadcast(ptr noundef %118) #11
  %120 = load ptr, ptr %13, align 8, !tbaa !3
  %121 = getelementptr inbounds nuw %struct.pmix_group_tracker_t, ptr %120, i32 0, i32 1
  %122 = getelementptr inbounds nuw %struct.pmix_lock_t, ptr %121, i32 0, i32 1
  call void @pmix_mutex_unlock(ptr noundef %122)
  br label %123

123:                                              ; preds = %109
  br label %124

124:                                              ; preds = %123
  call void @llvm.lifetime.end.p0(i64 8, ptr %17) #11
  call void @llvm.lifetime.end.p0(i64 8, ptr %16) #11
  call void @llvm.lifetime.end.p0(i64 8, ptr %15) #11
  call void @llvm.lifetime.end.p0(i64 8, ptr %14) #11
  call void @llvm.lifetime.end.p0(i64 8, ptr %13) #11
  ret void
}