; Function Attrs: nounwind uwtable
define internal void @info_cbfunc(i32 noundef %0, ptr noundef %1, i64 noundef %2, ptr noundef initializes((344, 348)) %3, ptr noundef readonly captures(address_is_null) %4, ptr noundef %5) #0 {
  %7 = getelementptr inbounds nuw i8, ptr %3, i64 344
  store i32 %0, ptr %7, align 8, !tbaa !28
  %.not = icmp eq ptr %1, null
  br i1 %.not, label %.thread, label %8

8:                                                ; preds = %6
  %9 = getelementptr inbounds nuw i8, ptr %3, i64 416
  store i64 %2, ptr %9, align 8, !tbaa !88
  %10 = tail call ptr @PMIx_Info_create(i64 noundef %2) #16
  %11 = getelementptr inbounds nuw i8, ptr %3, i64 408
  store ptr %10, ptr %11, align 8, !tbaa !87
  %.not57 = icmp eq i64 %2, 0
  br i1 %.not57, label %.thread, label %.lr.ph

.lr.ph:                                           ; preds = %8, %26
  %.154 = phi ptr [ %.2, %26 ], [ null, %8 ]
  %.13853 = phi ptr [ %.239, %26 ], [ null, %8 ]
  %.14152 = phi i64 [ %.242, %26 ], [ 0, %8 ]
  %.04351 = phi i64 [ %30, %26 ], [ 0, %8 ]
  %12 = getelementptr inbounds nuw %struct.pmix_info, ptr %1, i64 %.04351
  %13 = tail call zeroext i1 @PMIx_Check_key(ptr noundef nonnull %12, ptr noundef nonnull @.str.17) #16
  br i1 %13, label %14, label %21

14:                                               ; preds = %.lr.ph
  %15 = getelementptr inbounds nuw i8, ptr %12, i64 528
  %16 = load ptr, ptr %15, align 8, !tbaa !91
  %17 = getelementptr inbounds nuw i8, ptr %16, i64 16
  %18 = load ptr, ptr %17, align 8, !tbaa !92
  %19 = getelementptr inbounds nuw i8, ptr %16, i64 8
  %20 = load i64, ptr %19, align 8, !tbaa !94
  br label %26

21:                                               ; preds = %.lr.ph
  %22 = tail call zeroext i1 @PMIx_Check_key(ptr noundef nonnull %12, ptr noundef nonnull @.str.19) #16
  br i1 %22, label %23, label %26

23:                                               ; preds = %21
  %24 = getelementptr inbounds nuw i8, ptr %12, i64 528
  %25 = load ptr, ptr %24, align 8, !tbaa !91
  br label %26

26:                                               ; preds = %21, %23, %14
  %.242 = phi i64 [ %20, %14 ], [ %.14152, %23 ], [ %.14152, %21 ]
  %.239 = phi ptr [ %18, %14 ], [ %.13853, %23 ], [ %.13853, %21 ]
  %.2 = phi ptr [ %.154, %14 ], [ %25, %23 ], [ %.154, %21 ]
  %27 = load ptr, ptr %11, align 8, !tbaa !87
  %28 = getelementptr inbounds nuw %struct.pmix_info, ptr %27, i64 %.04351
  %29 = tail call i32 @PMIx_Info_xfer(ptr noundef %28, ptr noundef nonnull %12) #16
  %30 = add nuw i64 %.04351, 1
  %exitcond.not = icmp eq i64 %30, %2
  br i1 %exitcond.not, label %._crit_edge, label %.lr.ph, !llvm.loop !142

._crit_edge:                                      ; preds = %26
  %31 = icmp ne ptr %.239, null
  %32 = icmp ne ptr %.2, null
  %or.cond = select i1 %31, i1 %32, i1 false
  br i1 %or.cond, label %33, label %.thread

33:                                               ; preds = %._crit_edge
  tail call fastcc void @add_group(ptr noundef nonnull %.2, ptr noundef nonnull %.239, i64 noundef %.242)
  br label %.thread

.thread:                                          ; preds = %8, %6, %33, %._crit_edge
  %.not46 = icmp eq ptr %4, null
  br i1 %.not46, label %35, label %34

34:                                               ; preds = %.thread
  tail call void %4(ptr noundef %5) #16
  br label %35

35:                                               ; preds = %34, %.thread
  fence release
  %36 = getelementptr inbounds nuw i8, ptr %3, i64 248
  %37 = tail call i32 @pthread_mutex_lock(ptr noundef nonnull %36) #16
  %38 = getelementptr inbounds nuw i8, ptr %3, i64 336
  store volatile i8 0, ptr %38, align 8, !tbaa !21
  fence release
  %39 = getelementptr inbounds nuw i8, ptr %3, i64 288
  %40 = tail call i32 @pthread_cond_broadcast(ptr noundef nonnull %39) #16
  %41 = tail call i32 @pthread_mutex_unlock(ptr noundef nonnull %36) #16
  ret void
}